; Function Attrs: mustprogress uwtable
define hidden void @_ZN3sat8parallel9to_solverERNS_14i_local_searchE(ptr noundef nonnull align 8 dereferenceable(176) %this, ptr nocapture noundef nonnull readnone align 8 dereferenceable(8) %s) local_unnamed_addr #4 align 2 personality ptr @__gxx_personality_v0 {
entry:
  %m_mux = getelementptr inbounds i8, ptr %this, i64 72
  %call1.i.i.i = tail call noundef i32 @pthread_mutex_lock(ptr noundef nonnull %m_mux) #18
  %tobool.not.i.i = icmp eq i32 %call1.i.i.i, 0
  br i1 %tobool.not.i.i, label %_ZNSt10lock_guardISt5mutexEC2ERS0_.exit, label %if.then.i.i

if.then.i.i:                                      ; preds = %entry
  tail call void @_ZSt20__throw_system_errori(i32 noundef %call1.i.i.i) #20
  unreachable

_ZNSt10lock_guardISt5mutexEC2ERS0_.exit:          ; preds = %entry
  %call1.i.i.i1 = tail call noundef i32 @pthread_mutex_unlock(ptr noundef nonnull %m_mux) #18
  ret void
}